ccopy_reg
_reconstructor
p0
(csympy.matrices.dense
MutableDenseMatrix
p1
c__builtin__
object
p2
Ntp3
Rp4
(dp5
S'rows'
p6
I9
sS'_mat'
p7
(lp8
csympy.core.mul
Mul
p9
(csympy.core.power
Pow
p10
(csympy.core.symbol
Symbol
p11
(S'tau'
p12
tp13
Rp14
(dp15
S'_assumptions'
p16
g0
(csympy.core.assumptions
StdFactKB
p17
c__builtin__
dict
p18
(dp19
S'real'
p20
NsS'polar'
p21
NsS'irrational'
p22
NsS'antihermitian'
p23
NsS'nonpositive'
p24
NsS'algebraic'
p25
NsS'hermitian'
p26
NsS'infinite'
p27
NsS'integer'
p28
NsS'imaginary'
p29
NsS'even'
p30
NsS'commutative'
p31
I01
sS'zero'
p32
NsS'positive'
p33
NsS'negative'
p34
NsS'nonnegative'
p35
NsS'complex'
p36
NsS'rational'
p37
NsS'finite'
p38
Nstp39
Rp40
(dp41
S'_generator'
p42
(dp43
sbsbcsympy.core.numbers
NegativeOne
p44
(I-1
tp45
Rp46
(dp47
btp48
Rp49
(dp50
bg10
(g11
(S'N'
p51
tp52
Rp53
(dp54
g16
g0
(g17
g18
(dp55
S'real'
p56
I01
sg21
Nsg26
I01
sg22
I00
sg23
Nsg24
NsS'algebraic'
p57
I01
sg32
Nsg27
NsS'integer'
p58
I01
sg29
I00
sS'odd'
p59
Nsg30
NsS'commutative'
p60
I01
sg33
NsS'noninteger'
p61
I00
sg34
Nsg35
NsS'prime'
p62
NsS'complex'
p63
I01
sg37
I01
sg38
NsS'transcendental'
p64
I00
stp65
Rp66
(dp67
g42
(dp68
g58
I01
ssbsbg46
tp69
Rp70
(dp71
bg10
(csympy.core.add
Add
p72
(g9
(g11
(S'k'
p73
tp74
Rp75
(dp76
g16
g0
(g17
g18
(dp77
g31
I01
sg23
Nsg24
Nsg33
Nsg34
Nsg35
Nsg25
Nsg32
Nsg36
Nsg37
Nsg27
Nsg26
Nsg38
Nsg22
Nstp78
Rp79
(dp80
g42
(dp81
sbsbg53
tp82
Rp83
(dp84
bg9
(g75
g11
(S'y'
p85
tp86
Rp87
(dp88
g16
g0
(g17
g18
(dp89
g31
I01
stp90
Rp91
(dp92
g42
(dp93
sbsbg53
tp94
Rp95
(dp96
btp97
Rp98
(dp99
bg46
tp100
Rp101
(dp102
bg10
(g72
(g83
g9
(g46
g75
g87
g53
tp103
Rp104
(dp105
btp106
Rp107
(dp108
bg46
tp109
Rp110
(dp111
bg72
(g9
(csympy.core.numbers
Float
p112
((I1
S'1L'
p113
I0
I1
tp114
tp115
Rp116
(dp117
S'_prec'
p118
I53
sbg11
(S'epsilon'
p119
tp120
Rp121
(dp122
g16
g0
(g17
g18
(dp123
g20
Nsg21
Nsg22
Nsg23
Nsg24
Nsg25
Nsg32
Nsg27
Nsg28
Nsg26
Nsg29
Nsg30
Nsg31
I01
sg33
Nsg34
Nsg35
Nsg36
Nsg37
Nsg38
Nstp124
Rp125
(dp126
g42
(dp127
sbsbg11
(S'x'
p128
tp129
Rp130
(dp131
g16
g0
(g17
g18
(dp132
g20
Nsg22
Nsg23
Nsg24
Nsg25
Nsg26
Nsg27
Nsg28
Nsg29
Nsg30
Nsg31
I01
sg32
Nsg33
Nsg34
Nsg35
Nsg36
Nsg37
Nsg38
Nstp133
Rp134
(dp135
g42
(dp136
sbsbg53
g98
g107
tp137
Rp138
(dp139
bg9
(g112
((I0
S'1L'
p140
I-1
I1
tp141
tp142
Rp143
(dp144
g118
I53
sbg75
g11
(S'z'
p145
tp146
Rp147
(dp148
g16
g0
(g17
g18
(dp149
g32
Nsg31
I01
sg27
Nsg33
Nsg38
Nsg34
Nstp150
Rp151
(dp152
g42
(dp153
sbsbg53
g72
(g46
g121
tp154
Rp155
(dp156
bg72
(g46
g11
(S'phi'
p157
tp158
Rp159
(dp160
g16
g0
(g17
g18
(dp161
g20
Nsg21
Nsg22
Nsg23
Nsg24
Nsg25
Nsg32
Nsg27
Nsg28
Nsg26
Nsg29
Nsg30
Nsg31
I01
sg33
Nsg34
Nsg35
Nsg36
Nsg37
Nsg38
Nstp162
Rp163
(dp164
g42
(dp165
sbsbtp166
Rp167
(dp168
bg72
(g53
g9
(g46
g130
g53
tp169
Rp170
(dp171
btp172
Rp173
(dp174
bg98
g72
(csympy.core.numbers
One
p175
(I1
tp176
Rp177
(dp178
bg9
(g10
(g9
(g11
(S'p'
p179
tp180
Rp181
(dp182
g16
g0
(g17
g18
(dp183
g31
I01
stp184
Rp185
(dp186
g42
(dp187
sbsbg53
tp188
Rp189
(dp190
bg11
(S'pi'
p191
tp192
Rp193
(dp194
g16
g0
(g17
g18
(dp195
S'real'
p196
I01
sg30
Nsg64
I00
sS'nonpositive'
p197
I00
sg34
I00
sS'algebraic'
p198
I01
sS'zero'
p199
I00
sg27
Nsg28
NsS'imaginary'
p200
I00
sg22
I00
sS'nonzero'
p201
I01
sg60
I01
sS'positive'
p202
I01
sg26
I01
sS'nonnegative'
p203
I01
sg62
Nsg63
I01
sS'rational'
p204
I01
sg38
Nstp205
Rp206
(dp207
g42
(dp208
g196
I01
sg202
I01
sg204
I01
ssbsbtp209
Rp210
(dp211
bg10
(g9
(g11
(S'b_c'
p212
tp213
Rp214
(dp215
g16
g0
(g17
g18
(dp216
g196
I01
sg22
Nsg23
Nsg197
I00
sg34
I00
sg25
Nsg199
I00
sg27
Nsg200
I00
sg201
I01
sg60
I01
sg202
I01
sg26
I01
sg203
I01
sg63
I01
sg37
Nsg38
Nstp217
Rp218
(dp219
g42
(dp220
g196
I01
sg202
I01
ssbsbg10
(g9
(g11
(S'c'
p221
tp222
Rp223
(dp224
g16
g0
(g17
g18
(dp225
g21
Nsg31
I01
sg23
Nsg24
Nsg33
Nsg34
Nsg35
Nsg25
Nsg32
Nsg36
Nsg37
Nsg27
Nsg26
Nsg38
Nsg22
Nstp226
Rp227
(dp228
g42
(dp229
sbsbg53
tp230
Rp231
(dp232
bg11
(S'xi'
p233
tp234
Rp235
(dp236
g16
g0
(g17
g18
(dp237
g196
I01
sg64
I00
sg197
I00
sg34
I00
sg198
I01
sg199
I00
sg27
Nsg28
Nsg200
I00
sg22
I00
sg201
I01
sg60
I01
sg202
I01
sg26
I01
sg203
I01
sg63
I01
sg204
I01
sg38
Nstp238
Rp239
(dp240
g42
(dp241
g196
I01
sg202
I01
sg204
I01
ssbsbtp242
Rp243
(dp244
bg10
(g72
(g9
(g112
((I0
S'1L'
p245
I-1
I1
tp246
tp247
Rp248
(dp249
g118
I53
sbg53
g11
(S'mu_c^c'
p250
tp251
Rp252
(dp253
g16
g0
(g17
g18
(dp254
g196
I01
sg30
Nsg22
Nsg23
Nsg197
I00
sg34
I00
sg25
Nsg199
I00
sg27
Nsg28
Nsg200
I00
sg59
Nsg201
I01
sg60
I01
sg202
I01
sg26
I01
sg203
I01
sg62
Nsg63
I01
sg37
Nsg38
Nstp255
Rp256
(dp257
g42
(dp258
g196
I01
sg202
I01
ssbsbg72
(g177
g130
tp259
Rp260
(dp261
btp262
Rp263
(dp264
bg9
(g112
((I0
S'1L'
p265
I-1
I1
tp266
tp267
Rp268
(dp269
g118
I53
sbg53
g11
(S'mu_d^c'
p270
tp271
Rp272
(dp273
g16
g0
(g17
g18
(dp274
g196
I01
sg30
Nsg22
Nsg23
Nsg197
I00
sg34
I00
sg25
Nsg199
I00
sg27
Nsg28
Nsg200
I00
sg59
Nsg201
I01
sg60
I01
sg202
I01
sg26
I01
sg203
I01
sg63
I01
sg37
Nsg38
Nstp275
Rp276
(dp277
g42
(dp278
g196
I01
sg202
I01
ssbsbg72
(g177
g9
(g46
g130
tp279
Rp280
(dp281
btp282
Rp283
(dp284
btp285
Rp286
(dp287
btp288
Rp289
(dp290
bg72
(g112
((I0
S'1L'
p291
I0
I1
tp292
tp293
Rp294
(dp295
g118
I53
sbg9
(g46
g193
tp296
Rp297
(dp298
bg9
(g46
g235
tp299
Rp300
(dp301
btp302
Rp303
(dp304
btp305
Rp306
(dp307
btp308
Rp309
(dp310
bg9
(g112
((I0
S'1L'
p311
I0
I1
tp312
tp313
Rp314
(dp315
g118
I53
sbg10
(g72
(g177
g297
tp316
Rp317
(dp318
bg46
tp319
Rp320
(dp321
btp322
Rp323
(dp324
btp325
Rp326
(dp327
bg10
(g72
(g326
g9
(g10
(g9
(g11
(S'b_d'
p328
tp329
Rp330
(dp331
g16
g0
(g17
g18
(dp332
g196
I01
sg22
Nsg23
Nsg197
I00
sg34
I00
sg25
Nsg199
I00
sg27
Nsg200
I00
sg201
I01
sg60
I01
sg202
I01
sg26
I01
sg203
I01
sg63
I01
sg37
Nsg38
Nstp333
Rp334
(dp335
g42
(dp336
g196
I01
sg202
I01
ssbsbg10
(g72
(g9
(g112
((I0
S'1L'
p337
I-1
I1
tp338
tp339
Rp340
(dp341
g118
I53
sbg53
g11
(S'mu_c^d'
p342
tp343
Rp344
(dp345
g16
g0
(g17
g18
(dp346
g196
I01
sg30
Nsg22
Nsg23
Nsg197
I00
sg34
I00
sg25
Nsg199
I00
sg27
Nsg28
Nsg200
I00
sg59
Nsg201
I01
sg60
I01
sg202
I01
sg26
I01
sg203
I01
sg62
Nsg63
I01
sg37
Nsg38
Nstp347
Rp348
(dp349
g42
(dp350
g196
I01
sg202
I01
ssbsbg260
tp351
Rp352
(dp353
bg9
(g112
((I0
S'1L'
p354
I-1
I1
tp355
tp356
Rp357
(dp358
g118
I53
sbg53
g11
(S'mu_d^d'
p359
tp360
Rp361
(dp362
g16
g0
(g17
g18
(dp363
g196
I01
sg30
Nsg22
Nsg23
Nsg197
I00
sg34
I00
sg25
Nsg199
I00
sg27
Nsg28
Nsg200
I00
sg59
Nsg201
I01
sg60
I01
sg202
I01
sg26
I01
sg203
I01
sg63
I01
sg37
Nsg38
Nstp364
Rp365
(dp366
g42
(dp367
g196
I01
sg202
I01
ssbsbg283
tp368
Rp369
(dp370
btp371
Rp372
(dp373
bg72
(g112
((I0
S'1L'
p374
I0
I1
tp375
tp376
Rp377
(dp378
g118
I53
sbg297
tp379
Rp380
(dp381
btp382
Rp383
(dp384
btp385
Rp386
(dp387
bg323
tp388
Rp389
(dp390
bg10
(g72
(g112
((I0
S'1L'
p391
I0
I1
tp392
tp393
Rp394
(dp395
g118
I53
sbg9
(g46
g11
(S'b_R'
p396
tp397
Rp398
(dp399
g16
g0
(g17
g18
(dp400
g196
I01
sg22
Nsg23
Nsg197
I00
sg34
I00
sg25
Nsg199
I00
sg27
Nsg200
I00
sg201
I01
sg60
I01
sg202
I01
sg26
I01
sg203
I01
sg63
I01
sg37
Nsg38
Nstp401
Rp402
(dp403
g42
(dp404
g196
I01
sg202
I01
ssbsbg10
(g11
(S'g'
p405
tp406
Rp407
(dp408
g16
g0
(g17
g18
(dp409
g20
Nsg22
Nsg23
Nsg24
Nsg25
Nsg26
Nsg27
Nsg28
Nsg29
Nsg59
Nsg30
Nsg31
I01
sg32
Nsg33
Nsg34
Nsg35
Nsg36
Nsg37
Nsg38
Nstp410
Rp411
(dp412
g42
(dp413
sbsbcsympy.core.numbers
Integer
p414
(I-2
tp415
Rp416
(dp417
btp418
Rp419
(dp420
bg10
(g11
(S'g_0'
p421
tp422
Rp423
(dp424
g16
g0
(g17
g18
(dp425
g20
Nsg22
Nsg23
Nsg24
Nsg25
Nsg26
Nsg27
Nsg28
Nsg29
Nsg59
Nsg30
Nsg31
I01
sg32
Nsg33
Nsg34
Nsg35
Nsg36
Nsg37
Nsg38
Nstp426
Rp427
(dp428
g42
(dp429
sbsbg414
(I2
tp430
Rp431
(dp432
btp433
Rp434
(dp435
bg10
(g11
(S'e'
p436
tp437
Rp438
(dp439
g16
g0
(g17
g18
(dp440
g196
I01
sg201
I01
sg60
I01
sg197
I00
sg202
I01
sg26
I01
sg203
I01
sg199
I00
sg63
I01
sg34
I00
sg27
Nsg200
I00
sg38
Nstp441
Rp442
(dp443
g42
(dp444
g196
I01
sg202
I01
ssbsbg46
tp445
Rp446
(dp447
btp448
Rp449
(dp450
btp451
Rp452
(dp453
bg323
tp454
Rp455
(dp456
btp457
Rp458
(dp459
btp460
Rp461
(dp462
bg297
tp463
Rp464
(dp465
bg10
(g289
g46
tp466
Rp467
(dp468
bg72
(g252
g9
(g46
g272
tp469
Rp470
(dp471
btp472
Rp473
(dp474
bg303
tp475
Rp476
(dp477
bg9
(g210
g389
g455
g464
g10
(g372
g46
tp478
Rp479
(dp480
bg380
g72
(g344
g9
(g46
g361
tp481
Rp482
(dp483
btp484
Rp485
(dp486
btp487
Rp488
(dp489
btp490
Rp491
(dp492
btp493
Rp494
(dp495
bg9
(g112
((I1
S'1L'
p496
I-1
I1
tp497
tp498
Rp499
(dp500
g118
I53
sbg75
g147
g53
g155
g167
g72
(g53
g9
(g130
g53
tp501
Rp502
(dp503
btp504
Rp505
(dp506
bg107
g72
(g177
g9
(g46
g210
g326
g464
g467
g72
(g252
g9
(g46
g272
tp507
Rp508
(dp509
btp510
Rp511
(dp512
bg303
tp513
Rp514
(dp515
bg9
(g46
g210
g389
g455
g464
g479
g380
g72
(g344
g9
(g46
g361
tp516
Rp517
(dp518
btp519
Rp520
(dp521
btp522
Rp523
(dp524
btp525
Rp526
(dp527
btp528
Rp529
(dp530
btp531
Rp532
(dp533
btp534
Rp535
(dp536
bag9
(g49
g10
(g53
g416
tp537
Rp538
(dp539
bg101
g110
g72
(g9
(g112
((I0
S'1L'
p540
I-1
I1
tp541
tp542
Rp543
(dp544
g118
I53
sbg53
g98
g107
g72
(g9
(g121
g107
tp545
Rp546
(dp547
bg9
(g46
g121
g98
tp548
Rp549
(dp550
bg9
(g75
g147
g53
g72
(g46
g121
tp551
Rp552
(dp553
bg72
(g46
g159
tp554
Rp555
(dp556
bg491
tp557
Rp558
(dp559
bg9
(g46
g75
g147
g53
g72
(g46
g121
tp560
Rp561
(dp562
bg72
(g46
g159
tp563
Rp564
(dp565
bg526
tp566
Rp567
(dp568
btp569
Rp570
(dp571
btp572
Rp573
(dp574
bg9
(g112
((I1
S'1L'
p575
I-2
I1
tp576
tp577
Rp578
(dp579
g118
I53
sbg121
g505
g107
g72
(g9
(g173
g72
(g83
g95
g9
(g46
g75
g147
g53
tp580
Rp581
(dp582
btp583
Rp584
(dp585
btp586
Rp587
(dp588
bg9
(g46
g75
g147
g53
g505
tp589
Rp590
(dp591
btp592
Rp593
(dp594
btp595
Rp596
(dp597
bg9
(g112
((I1
S'1L'
p598
I-2
I1
tp599
tp600
Rp601
(dp602
g118
I53
sbg121
g173
g98
g72
(g9
(g505
g72
(g9
(g46
g75
g53
tp603
Rp604
(dp605
bg95
g9
(g75
g147
g53
tp606
Rp607
(dp608
btp609
Rp610
(dp611
btp612
Rp613
(dp614
bg9
(g75
g147
g53
g173
tp615
Rp616
(dp617
btp618
Rp619
(dp620
btp621
Rp622
(dp623
bg9
(g112
((I0
S'1L'
p624
I-1
I1
tp625
tp626
Rp627
(dp628
g118
I53
sbg75
g159
g147
g10
(g53
g431
tp629
Rp630
(dp631
bg561
g173
g98
tp632
Rp633
(dp634
bg9
(g112
((I1
S'1L'
p635
I-1
I1
tp636
tp637
Rp638
(dp639
g118
I53
sbg75
g159
g147
g630
g72
(g46
g121
tp640
Rp641
(dp642
bg505
g107
tp643
Rp644
(dp645
btp646
Rp647
(dp648
btp649
Rp650
(dp651
bag9
(g49
g538
g10
(g98
g416
tp652
Rp653
(dp654
bg10
(g107
g416
tp655
Rp656
(dp657
bg72
(g9
(g112
((I0
S'1L'
p658
I-2
I1
tp659
tp660
Rp661
(dp662
g118
I53
sbg121
g10
(g107
g431
tp663
Rp664
(dp665
bg505
g98
g593
tp666
Rp667
(dp668
bg9
(g112
((I0
S'1L'
p669
I0
I1
tp670
tp671
Rp672
(dp673
g118
I53
sbg121
g53
g10
(g98
g431
tp674
Rp675
(dp676
bg664
g72
(g83
g9
(g416
g75
g147
g53
tp677
Rp678
(dp679
btp680
Rp681
(dp682
btp683
Rp684
(dp685
bg9
(g112
((I1
S'1L'
p686
I-2
I1
tp687
tp688
Rp689
(dp690
g118
I53
sbg121
g675
g173
g107
g619
tp691
Rp692
(dp693
bg9
(g112
((I0
S'1L'
p694
I-1
I1
tp695
tp696
Rp697
(dp698
g118
I53
sbg75
g159
g147
g630
g675
g641
g173
g107
tp699
Rp700
(dp701
bg9
(g112
((I0
S'1L'
p702
I-1
I1
tp703
tp704
Rp705
(dp706
g118
I53
sbg75
g159
g147
g630
g664
g641
g505
g98
tp707
Rp708
(dp709
bg9
(g112
((I1
S'1L'
p710
I-2
I1
tp711
tp712
Rp713
(dp714
g118
I53
sbg75
g147
g630
g675
g72
(g46
g121
tp715
Rp716
(dp717
bg72
(g46
g159
tp718
Rp719
(dp720
bg72
(g9
(g173
g107
tp721
Rp722
(dp723
bg9
(g431
g72
(g9
(g46
g75
g53
tp724
Rp725
(dp726
bg95
g9
(g431
g75
g147
g53
tp727
Rp728
(dp729
btp730
Rp731
(dp732
bg72
(g9
(g112
((I1
S'1L'
p733
I-1
I1
tp734
tp735
Rp736
(dp737
g118
I53
sbg53
tp738
Rp739
(dp740
bg83
g9
(g112
((I0
S'1L'
p741
I-1
I1
tp742
tp743
Rp744
(dp745
g118
I53
sbg130
g53
tp746
Rp747
(dp748
bg9
(g46
g75
g87
g53
tp749
Rp750
(dp751
btp752
Rp753
(dp754
btp755
Rp756
(dp757
btp758
Rp759
(dp760
bg491
tp761
Rp762
(dp763
bg9
(g112
((I1
S'1L'
p764
I-2
I1
tp765
tp766
Rp767
(dp768
g118
I53
sbg75
g147
g630
g664
g716
g719
g72
(g9
(g46
g505
g98
tp769
Rp770
(dp771
bg9
(g431
g72
(g83
g95
g9
(g416
g75
g147
g53
tp772
Rp773
(dp774
btp775
Rp776
(dp777
bg72
(g739
g83
g9
(g112
((I1
S'1L'
p778
I-1
I1
tp779
tp780
Rp781
(dp782
g118
I53
sbg130
g53
tp783
Rp784
(dp785
bg95
tp786
Rp787
(dp788
btp789
Rp790
(dp791
btp792
Rp793
(dp794
bg72
(g46
g476
g488
tp795
Rp796
(dp797
btp798
Rp799
(dp800
btp801
Rp802
(dp803
btp804
Rp805
(dp806
bag72
(g9
(g252
g72
(g9
(g46
g11
(S'delta'
p807
tp808
Rp809
(dp810
g16
g0
(g17
g18
(dp811
g196
I01
sg64
I00
sg23
Nsg197
I00
sg34
I00
sg198
I01
sg199
I00
sg27
Nsg28
Nsg200
I00
sg22
I00
sg201
I01
sg60
I01
sg202
I01
sg26
I01
sg203
I01
sg63
I01
sg204
I01
sg38
Nstp812
Rp813
(dp814
g42
(dp815
g196
I01
sg202
I01
sg204
I01
ssbsbtp816
Rp817
(dp818
bg9
(g11
(S's'
p819
tp820
Rp821
(dp822
g16
g0
(g17
g18
(dp823
g196
I01
sg64
I00
sg23
Nsg197
I00
sg34
I00
sg198
I01
sg199
I00
sg27
Nsg200
I00
sg22
I00
sg201
I01
sg60
I01
sg202
I01
sg26
I01
sg203
I01
sg63
I01
sg204
I01
sg38
Nstp824
Rp825
(dp826
g42
(dp827
g196
I01
sg202
I01
sg204
I01
ssbsbg210
g326
g464
g467
g303
tp828
Rp829
(dp830
btp831
Rp832
(dp833
btp834
Rp835
(dp836
bg9
(g181
g193
g821
g10
(g189
g72
(g46
g193
tp837
Rp838
(dp839
btp840
Rp841
(dp842
bg10
(g461
g317
tp843
Rp844
(dp845
btp846
Rp847
(dp848
bg9
(g112
((I1
S'1L'
p849
I-2
I1
tp850
tp851
Rp852
(dp853
g118
I53
sbg49
g70
g10
(g505
g46
tp854
Rp855
(dp856
bg10
(g173
g431
tp857
Rp858
(dp859
bg110
g72
(g252
g508
tp860
Rp861
(dp862
bg72
(g546
g558
tp863
Rp864
(dp865
btp866
Rp867
(dp868
bg9
(g344
g821
g210
g389
g455
g464
g479
g380
tp869
Rp870
(dp871
btp872
Rp873
(dp874
bag72
(g9
(g46
g344
g809
tp875
Rp876
(dp877
bg9
(g112
((I1
S'1L'
p878
I-2
I1
tp879
tp880
Rp881
(dp882
g118
I53
sbg49
g70
g855
g858
g110
g72
(g344
g517
tp883
Rp884
(dp885
bg864
tp886
Rp887
(dp888
btp889
Rp890
(dp891
bag72
(g9
(g46
g272
g809
tp892
Rp893
(dp894
bg9
(g112
((I0
S'1L'
p895
I-2
I1
tp896
tp897
Rp898
(dp899
g118
I53
sbg49
g70
g10
(g505
g431
tp900
Rp901
(dp902
bg10
(g173
g46
tp903
Rp904
(dp905
bg101
g861
g72
(g9
(g121
g98
tp906
Rp907
(dp908
bg9
(g46
g75
g147
g53
g72
(g46
g121
tp909
Rp910
(dp911
bg72
(g46
g159
tp912
Rp913
(dp914
bg796
tp915
Rp916
(dp917
btp918
Rp919
(dp920
btp921
Rp922
(dp923
btp924
Rp925
(dp926
bag72
(g9
(g361
g72
(g817
g9
(g821
g210
g389
g455
g464
g479
g380
tp927
Rp928
(dp929
btp930
Rp931
(dp932
btp933
Rp934
(dp935
bg847
g9
(g272
g821
g210
g326
g464
g467
g303
tp936
Rp937
(dp938
bg9
(g112
((I0
S'1L'
p939
I-2
I1
tp940
tp941
Rp942
(dp943
g118
I53
sbg49
g70
g901
g904
g101
g884
g919
tp944
Rp945
(dp946
btp947
Rp948
(dp949
bag72
(g9
(g46
g223
g53
g809
tp950
Rp951
(dp952
bg9
(g214
g243
g10
(g9
(g181
g53
g326
g10
(g461
g46
tp953
Rp954
(dp955
btp956
Rp957
(dp958
bg193
tp959
Rp960
(dp961
bg10
(g72
(g9
(g252
g72
(g9
(csympy.core.numbers
Half
p962
(I1
I2
tp963
Rp964
(dp965
bg53
tp966
Rp967
(dp968
bg9
(g964
g130
g53
tp969
Rp970
(dp971
btp972
Rp973
(dp974
btp975
Rp976
(dp977
bg9
(g272
g72
(g967
g9
(csympy.core.numbers
Rational
p978
(I-1
I2
tp979
Rp980
(dp981
bg130
g53
tp982
Rp983
(dp984
btp985
Rp986
(dp987
btp988
Rp989
(dp990
btp991
Rp992
(dp993
bg303
tp994
Rp995
(dp996
btp997
Rp998
(dp999
btp1000
Rp1001
(dp1002
bag9
(g46
g330
g446
g210
g10
(g9
(g389
g455
g954
tp1003
Rp1004
(dp1005
bg193
tp1006
Rp1007
(dp1008
bg383
tp1009
Rp1010
(dp1011
basS'cols'
p1012
I1
sb.