ccopy_reg
_reconstructor
p0
(csympy.matrices.dense
MutableDenseMatrix
p1
c__builtin__
object
p2
Ntp3
Rp4
(dp5
S'rows'
p6
I9
sS'_mat'
p7
(lp8
csympy.core.mul
Mul
p9
(csympy.core.power
Pow
p10
(csympy.core.symbol
Symbol
p11
(S'tau'
p12
tp13
Rp14
(dp15
S'_assumptions'
p16
g0
(csympy.core.assumptions
StdFactKB
p17
c__builtin__
dict
p18
(dp19
S'real'
p20
NsS'polar'
p21
NsS'irrational'
p22
NsS'antihermitian'
p23
NsS'nonpositive'
p24
NsS'algebraic'
p25
NsS'hermitian'
p26
NsS'infinite'
p27
NsS'integer'
p28
NsS'imaginary'
p29
NsS'odd'
p30
NsS'even'
p31
NsS'commutative'
p32
I01
sS'zero'
p33
NsS'positive'
p34
NsS'negative'
p35
NsS'nonnegative'
p36
NsS'complex'
p37
NsS'rational'
p38
NsS'finite'
p39
Nstp40
Rp41
(dp42
S'_generator'
p43
(dp44
sbsbcsympy.core.numbers
NegativeOne
p45
(I-1
tp46
Rp47
(dp48
btp49
Rp50
(dp51
bg10
(g11
(S'N'
p52
tp53
Rp54
(dp55
g16
g0
(g17
g18
(dp56
S'real'
p57
I01
sg21
Nsg26
I01
sg22
I00
sg23
Nsg24
NsS'algebraic'
p58
I01
sg33
Nsg27
NsS'integer'
p59
I01
sg29
I00
sg30
Nsg31
NsS'commutative'
p60
I01
sg34
NsS'noninteger'
p61
I00
sg35
Nsg36
NsS'prime'
p62
NsS'complex'
p63
I01
sg38
I01
sg39
NsS'transcendental'
p64
I00
stp65
Rp66
(dp67
g43
(dp68
g59
I01
ssbsbg47
tp69
Rp70
(dp71
bg10
(csympy.core.add
Add
p72
(g9
(g11
(S'k'
p73
tp74
Rp75
(dp76
g16
g0
(g17
g18
(dp77
g20
Nsg21
Nsg22
Nsg23
Nsg24
Nsg25
Nsg33
Nsg27
Nsg28
Nsg26
Nsg30
Nsg29
Nsg31
Nsg32
I01
sg34
Nsg35
Nsg36
Nsg37
Nsg38
Nsg39
Nstp78
Rp79
(dp80
g43
(dp81
sbsbg54
tp82
Rp83
(dp84
bg9
(g75
g11
(S'y'
p85
tp86
Rp87
(dp88
g16
g0
(g17
g18
(dp89
g20
Nsg21
Nsg22
Nsg23
Nsg24
Nsg25
Nsg26
Nsg27
Nsg28
Nsg29
Nsg30
Nsg31
Nsg32
I01
sg33
Nsg34
Nsg35
Nsg36
Nsg37
Nsg38
Nsg39
Nstp90
Rp91
(dp92
g43
(dp93
sbsbg54
tp94
Rp95
(dp96
btp97
Rp98
(dp99
bg47
tp100
Rp101
(dp102
bg10
(g72
(g83
g9
(g47
g75
g87
g54
tp103
Rp104
(dp105
btp106
Rp107
(dp108
bg47
tp109
Rp110
(dp111
bg72
(g9
(csympy.core.numbers
Float
p112
((I1
S'1L'
p113
I0
I1
tp114
tp115
Rp116
(dp117
S'_prec'
p118
I53
sbg11
(S'epsilon'
p119
tp120
Rp121
(dp122
g16
g0
(g17
g18
(dp123
g20
Nsg21
Nsg22
Nsg23
Nsg24
Nsg25
Nsg33
Nsg27
Nsg28
Nsg26
Nsg29
Nsg31
Nsg32
I01
sg34
Nsg35
Nsg36
Nsg37
Nsg38
Nsg39
Nstp124
Rp125
(dp126
g43
(dp127
sbsbg11
(S'x'
p128
tp129
Rp130
(dp131
g16
g0
(g17
g18
(dp132
g20
Nsg21
Nsg22
Nsg23
Nsg24
Nsg25
Nsg26
Nsg27
Nsg28
Nsg29
Nsg30
Nsg31
Nsg32
I01
sg33
Nsg34
Nsg35
Nsg36
Nsg37
Nsg38
Nsg39
Nstp133
Rp134
(dp135
g43
(dp136
sbsbg54
g98
g107
tp137
Rp138
(dp139
bg9
(g112
((I0
S'1L'
p140
I-1
I1
tp141
tp142
Rp143
(dp144
g118
I53
sbg75
g11
(S'z'
p145
tp146
Rp147
(dp148
g16
g0
(g17
g18
(dp149
g20
Nsg21
Nsg22
Nsg23
Nsg24
Nsg25
Nsg33
Nsg27
Nsg28
Nsg26
Nsg30
Nsg29
Nsg31
Nsg32
I01
sg34
Nsg35
Nsg36
Nsg37
Nsg38
Nsg39
Nstp150
Rp151
(dp152
g43
(dp153
sbsbg54
g72
(g47
g121
tp154
Rp155
(dp156
bg72
(g47
g11
(S'phi'
p157
tp158
Rp159
(dp160
g16
g0
(g17
g18
(dp161
g20
Nsg21
Nsg22
Nsg23
Nsg24
Nsg25
Nsg33
Nsg27
Nsg28
Nsg26
Nsg29
Nsg31
Nsg32
I01
sg34
Nsg35
Nsg36
Nsg37
Nsg38
Nsg39
Nstp162
Rp163
(dp164
g43
(dp165
sbsbtp166
Rp167
(dp168
bg72
(g54
g9
(g130
g54
tp169
Rp170
(dp171
btp172
Rp173
(dp174
bg98
g72
(csympy.core.numbers
One
p175
(I1
tp176
Rp177
(dp178
bg9
(g10
(g9
(g11
(S'p'
p179
tp180
Rp181
(dp182
g16
g0
(g17
g18
(dp183
g20
Nsg21
Nsg22
Nsg23
Nsg24
Nsg25
Nsg33
Nsg27
Nsg28
Nsg26
Nsg29
Nsg31
Nsg32
I01
sg34
Nsg35
Nsg36
Nsg37
Nsg38
Nsg39
Nstp184
Rp185
(dp186
g43
(dp187
sbsbg54
tp188
Rp189
(dp190
bg11
(S'pi'
p191
tp192
Rp193
(dp194
g16
g0
(g17
g18
(dp195
S'real'
p196
I01
sg21
Nsg26
I01
sg22
I00
sg23
NsS'nonpositive'
p197
I00
sg31
NsS'algebraic'
p198
I01
sS'zero'
p199
I00
sg27
Nsg28
NsS'imaginary'
p200
I00
sg30
NsS'nonzero'
p201
I01
sg60
I01
sS'positive'
p202
I01
sg35
I00
sS'nonnegative'
p203
I01
sg62
Nsg63
I01
sS'rational'
p204
I01
sg39
Nsg64
I00
stp205
Rp206
(dp207
g43
(dp208
g196
I01
sg202
I01
sg204
I01
ssbsbtp209
Rp210
(dp211
bg10
(g9
(g11
(S'b_c'
p212
tp213
Rp214
(dp215
g16
g0
(g17
g18
(dp216
g196
I01
sg21
Nsg22
Nsg23
Nsg197
I00
sg31
Nsg35
I00
sg25
Nsg199
I00
sg27
Nsg28
Nsg200
I00
sg201
I01
sg60
I01
sg202
I01
sg26
I01
sg203
I01
sg62
Nsg63
I01
sg38
Nsg39
Nstp217
Rp218
(dp219
g43
(dp220
g196
I01
sg202
I01
ssbsbg10
(g9
(g11
(S'c'
p221
tp222
Rp223
(dp224
g16
g0
(g17
g18
(dp225
g20
Nsg21
Nsg22
Nsg23
Nsg24
Nsg25
Nsg26
Nsg27
Nsg28
Nsg29
Nsg30
Nsg31
Nsg32
I01
sg33
Nsg34
Nsg35
Nsg36
Nsg37
Nsg38
Nsg39
Nstp226
Rp227
(dp228
g43
(dp229
sbsbg54
tp230
Rp231
(dp232
bg11
(S'xi'
p233
tp234
Rp235
(dp236
g16
g0
(g17
g18
(dp237
g196
I01
sg31
Nsg64
I00
sg23
Nsg197
I00
sg35
I00
sg198
I01
sg199
I00
sg27
Nsg28
Nsg200
I00
sg22
I00
sg201
I01
sg60
I01
sg202
I01
sg26
I01
sg203
I01
sg62
Nsg63
I01
sg204
I01
sg39
Nstp238
Rp239
(dp240
g43
(dp241
g196
I01
sg202
I01
sg204
I01
ssbsbtp242
Rp243
(dp244
bg10
(g72
(g9
(g112
((I0
S'1L'
p245
I-1
I1
tp246
tp247
Rp248
(dp249
g118
I53
sbg54
g11
(S'mu_c^c'
p250
tp251
Rp252
(dp253
g16
g0
(g17
g18
(dp254
g196
I01
sg31
Nsg22
Nsg23
Nsg197
I00
sg35
I00
sg25
Nsg199
I00
sg27
Nsg28
Nsg200
I00
sg30
Nsg201
I01
sg60
I01
sg202
I01
sg26
I01
sg203
I01
sg62
Nsg63
I01
sg38
Nsg39
Nstp255
Rp256
(dp257
g43
(dp258
g196
I01
sg202
I01
ssbsbg72
(g177
g130
tp259
Rp260
(dp261
btp262
Rp263
(dp264
bg9
(g112
((I0
S'1L'
p265
I-1
I1
tp266
tp267
Rp268
(dp269
g118
I53
sbg54
g11
(S'mu_d^c'
p270
tp271
Rp272
(dp273
g16
g0
(g17
g18
(dp274
g196
I01
sg31
Nsg22
Nsg23
Nsg197
I00
sg35
I00
sg25
Nsg199
I00
sg27
Nsg28
Nsg200
I00
sg30
Nsg201
I01
sg60
I01
sg202
I01
sg26
I01
sg203
I01
sg63
I01
sg38
Nsg39
Nstp275
Rp276
(dp277
g43
(dp278
g196
I01
sg202
I01
ssbsbg72
(g177
g9
(g47
g130
tp279
Rp280
(dp281
btp282
Rp283
(dp284
btp285
Rp286
(dp287
btp288
Rp289
(dp290
bg72
(g112
((I0
S'1L'
p291
I0
I1
tp292
tp293
Rp294
(dp295
g118
I53
sbg9
(g47
g193
tp296
Rp297
(dp298
bg9
(g47
g235
tp299
Rp300
(dp301
btp302
Rp303
(dp304
btp305
Rp306
(dp307
btp308
Rp309
(dp310
bg9
(g112
((I0
S'1L'
p311
I0
I1
tp312
tp313
Rp314
(dp315
g118
I53
sbg10
(g72
(g177
g9
(g47
g193
tp316
Rp317
(dp318
btp319
Rp320
(dp321
bg47
tp322
Rp323
(dp324
btp325
Rp326
(dp327
btp328
Rp329
(dp330
bg10
(g72
(g329
g9
(g10
(g9
(g11
(S'b_d'
p331
tp332
Rp333
(dp334
g16
g0
(g17
g18
(dp335
g196
I01
sg21
Nsg22
Nsg23
Nsg197
I00
sg31
Nsg35
I00
sg25
Nsg199
I00
sg27
Nsg28
Nsg200
I00
sg201
I01
sg60
I01
sg202
I01
sg26
I01
sg203
I01
sg62
Nsg63
I01
sg38
Nsg39
Nstp336
Rp337
(dp338
g43
(dp339
g196
I01
sg202
I01
ssbsbg10
(g72
(g9
(g112
((I0
S'1L'
p340
I-1
I1
tp341
tp342
Rp343
(dp344
g118
I53
sbg54
g11
(S'mu_c^d'
p345
tp346
Rp347
(dp348
g16
g0
(g17
g18
(dp349
g196
I01
sg31
Nsg22
Nsg23
Nsg197
I00
sg35
I00
sg25
Nsg199
I00
sg27
Nsg28
Nsg200
I00
sg30
Nsg201
I01
sg60
I01
sg202
I01
sg26
I01
sg203
I01
sg63
I01
sg38
Nsg39
Nstp350
Rp351
(dp352
g43
(dp353
g196
I01
sg202
I01
ssbsbg260
tp354
Rp355
(dp356
bg9
(g112
((I0
S'1L'
p357
I-1
I1
tp358
tp359
Rp360
(dp361
g118
I53
sbg54
g11
(S'mu_d^d'
p362
tp363
Rp364
(dp365
g16
g0
(g17
g18
(dp366
g196
I01
sg31
Nsg22
Nsg23
Nsg197
I00
sg35
I00
sg25
Nsg199
I00
sg27
Nsg28
Nsg200
I00
sg30
Nsg201
I01
sg60
I01
sg202
I01
sg26
I01
sg203
I01
sg62
Nsg63
I01
sg38
Nsg39
Nstp367
Rp368
(dp369
g43
(dp370
g196
I01
sg202
I01
ssbsbg283
tp371
Rp372
(dp373
btp374
Rp375
(dp376
bg72
(g112
((I0
S'1L'
p377
I0
I1
tp378
tp379
Rp380
(dp381
g118
I53
sbg297
tp382
Rp383
(dp384
btp385
Rp386
(dp387
btp388
Rp389
(dp390
bg326
tp391
Rp392
(dp393
bg10
(g72
(g112
((I0
S'1L'
p394
I0
I1
tp395
tp396
Rp397
(dp398
g118
I53
sbg9
(g47
g11
(S'b_R'
p399
tp400
Rp401
(dp402
g16
g0
(g17
g18
(dp403
g196
I01
sg22
Nsg23
Nsg197
I00
sg35
I00
sg25
Nsg199
I00
sg27
Nsg200
I00
sg201
I01
sg60
I01
sg202
I01
sg26
I01
sg203
I01
sg63
I01
sg38
Nsg39
Nstp404
Rp405
(dp406
g43
(dp407
g196
I01
sg202
I01
ssbsbg10
(g11
(S'g'
p408
tp409
Rp410
(dp411
g16
g0
(g17
g18
(dp412
g20
Nsg21
Nsg22
Nsg23
Nsg24
Nsg25
Nsg26
Nsg27
Nsg28
Nsg29
Nsg30
Nsg31
Nsg32
I01
sg33
Nsg34
Nsg35
Nsg36
Nsg37
Nsg38
Nsg39
Nstp413
Rp414
(dp415
g43
(dp416
sbsbcsympy.core.numbers
Integer
p417
(I-2
tp418
Rp419
(dp420
btp421
Rp422
(dp423
bg10
(g11
(S'g_0'
p424
tp425
Rp426
(dp427
g16
g0
(g17
g18
(dp428
g20
Nsg21
Nsg22
Nsg23
Nsg24
Nsg25
Nsg26
Nsg27
Nsg28
Nsg29
Nsg30
Nsg31
Nsg32
I01
sg33
Nsg34
Nsg35
Nsg36
Nsg37
Nsg38
Nsg39
Nstp429
Rp430
(dp431
g43
(dp432
sbsbg417
(I2
tp433
Rp434
(dp435
btp436
Rp437
(dp438
bg10
(g11
(S'e'
p439
tp440
Rp441
(dp442
g16
g0
(g17
g18
(dp443
g196
I01
sg21
Nsg22
Nsg23
Nsg197
I00
sg31
Nsg35
I00
sg25
Nsg199
I00
sg27
Nsg28
Nsg200
I00
sg201
I01
sg60
I01
sg202
I01
sg26
I01
sg203
I01
sg62
Nsg63
I01
sg38
Nsg39
Nstp444
Rp445
(dp446
g43
(dp447
g196
I01
sg202
I01
ssbsbg47
tp448
Rp449
(dp450
btp451
Rp452
(dp453
btp454
Rp455
(dp456
bg326
tp457
Rp458
(dp459
btp460
Rp461
(dp462
btp463
Rp464
(dp465
bg297
tp466
Rp467
(dp468
bg10
(g289
g47
tp469
Rp470
(dp471
bg72
(g252
g9
(g47
g272
tp472
Rp473
(dp474
btp475
Rp476
(dp477
bg303
tp478
Rp479
(dp480
bg9
(g210
g392
g458
g467
g10
(g375
g47
tp481
Rp482
(dp483
bg383
g72
(g347
g9
(g47
g364
tp484
Rp485
(dp486
btp487
Rp488
(dp489
btp490
Rp491
(dp492
btp493
Rp494
(dp495
btp496
Rp497
(dp498
bg9
(g112
((I1
S'1L'
p499
I-1
I1
tp500
tp501
Rp502
(dp503
g118
I53
sbg75
g147
g54
g155
g167
g173
g107
g72
(g177
g9
(g47
g210
g329
g467
g470
g72
(g252
g9
(g47
g272
tp504
Rp505
(dp506
btp507
Rp508
(dp509
bg303
tp510
Rp511
(dp512
bg9
(g47
g210
g392
g458
g467
g482
g383
g72
(g347
g9
(g47
g364
tp513
Rp514
(dp515
btp516
Rp517
(dp518
btp519
Rp520
(dp521
btp522
Rp523
(dp524
btp525
Rp526
(dp527
btp528
Rp529
(dp530
btp531
Rp532
(dp533
bag9
(g50
g10
(g54
g419
tp534
Rp535
(dp536
bg101
g110
g72
(g9
(g112
((I0
S'1L'
p537
I-1
I1
tp538
tp539
Rp540
(dp541
g118
I53
sbg54
g98
g107
g72
(g9
(g121
g107
tp542
Rp543
(dp544
bg9
(g47
g121
g98
tp545
Rp546
(dp547
bg9
(g75
g147
g54
g72
(g47
g121
tp548
Rp549
(dp550
bg72
(g47
g159
tp551
Rp552
(dp553
bg494
tp554
Rp555
(dp556
bg9
(g47
g75
g147
g54
g155
g167
g523
tp557
Rp558
(dp559
btp560
Rp561
(dp562
btp563
Rp564
(dp565
bg9
(g112
((I1
S'1L'
p566
I-2
I1
tp567
tp568
Rp569
(dp570
g118
I53
sbg121
g173
g107
g72
(g9
(g72
(g54
g9
(g47
g130
g54
tp571
Rp572
(dp573
btp574
Rp575
(dp576
bg72
(g83
g95
g9
(g47
g75
g147
g54
tp577
Rp578
(dp579
btp580
Rp581
(dp582
btp583
Rp584
(dp585
bg9
(g47
g75
g147
g54
g173
tp586
Rp587
(dp588
btp589
Rp590
(dp591
btp592
Rp593
(dp594
bg9
(g112
((I1
S'1L'
p595
I-2
I1
tp596
tp597
Rp598
(dp599
g118
I53
sbg121
g575
g98
g72
(g9
(g173
g72
(g9
(g47
g75
g54
tp600
Rp601
(dp602
bg95
g9
(g75
g147
g54
tp603
Rp604
(dp605
btp606
Rp607
(dp608
btp609
Rp610
(dp611
bg9
(g75
g147
g54
g575
tp612
Rp613
(dp614
btp615
Rp616
(dp617
btp618
Rp619
(dp620
bg9
(g112
((I0
S'1L'
p621
I-1
I1
tp622
tp623
Rp624
(dp625
g118
I53
sbg75
g159
g147
g10
(g54
g434
tp626
Rp627
(dp628
bg155
g173
g98
tp629
Rp630
(dp631
bg9
(g112
((I1
S'1L'
p632
I-1
I1
tp633
tp634
Rp635
(dp636
g118
I53
sbg75
g159
g147
g627
g155
g173
g107
tp637
Rp638
(dp639
btp640
Rp641
(dp642
btp643
Rp644
(dp645
bag9
(g50
g535
g10
(g575
g47
tp646
Rp647
(dp648
bg10
(g98
g419
tp649
Rp650
(dp651
bg10
(g107
g419
tp652
Rp653
(dp654
bg72
(g9
(g112
((I1
S'1L'
p655
I-2
I1
tp656
tp657
Rp658
(dp659
g118
I53
sbg121
g10
(g575
g434
tp660
Rp661
(dp662
bg10
(g98
g434
tp663
Rp664
(dp665
bg107
g616
tp666
Rp667
(dp668
bg9
(g112
((I0
S'1L'
p669
I-2
I1
tp670
tp671
Rp672
(dp673
g118
I53
sbg121
g10
(g107
g434
tp674
Rp675
(dp676
bg173
g575
g98
g590
tp677
Rp678
(dp679
bg9
(g112
((I0
S'1L'
p680
I0
I1
tp681
tp682
Rp683
(dp684
g118
I53
sbg121
g54
g664
g675
g575
g72
(g83
g9
(g419
g75
g147
g54
tp685
Rp686
(dp687
btp688
Rp689
(dp690
btp691
Rp692
(dp693
bg9
(g112
((I0
S'1L'
p694
I-1
I1
tp695
tp696
Rp697
(dp698
g118
I53
sbg75
g159
g147
g627
g664
g155
g173
g575
g107
tp699
Rp700
(dp701
bg9
(g112
((I0
S'1L'
p702
I-1
I1
tp703
tp704
Rp705
(dp706
g118
I53
sbg75
g159
g147
g627
g675
g155
g173
g575
g98
tp707
Rp708
(dp709
bg9
(g112
((I1
S'1L'
p710
I-2
I1
tp711
tp712
Rp713
(dp714
g118
I53
sbg75
g147
g627
g664
g72
(g47
g121
tp715
Rp716
(dp717
bg72
(g47
g159
tp718
Rp719
(dp720
bg173
g72
(g9
(g575
g107
tp721
Rp722
(dp723
bg9
(g434
g72
(g9
(g47
g75
g54
tp724
Rp725
(dp726
bg95
g9
(g434
g75
g147
g54
tp727
Rp728
(dp729
btp730
Rp731
(dp732
bg72
(g9
(g112
((I1
S'1L'
p733
I-1
I1
tp734
tp735
Rp736
(dp737
g118
I53
sbg54
tp738
Rp739
(dp740
bg83
g9
(g112
((I1
S'1L'
p741
I-1
I1
tp742
tp743
Rp744
(dp745
g118
I53
sbg130
g54
tp746
Rp747
(dp748
bg9
(g47
g75
g87
g54
tp749
Rp750
(dp751
btp752
Rp753
(dp754
btp755
Rp756
(dp757
btp758
Rp759
(dp760
bg494
tp761
Rp762
(dp763
bg9
(g112
((I1
S'1L'
p764
I-2
I1
tp765
tp766
Rp767
(dp768
g118
I53
sbg75
g147
g627
g675
g716
g719
g575
g72
(g9
(g47
g173
g98
tp769
Rp770
(dp771
bg9
(g434
g72
(g83
g95
g9
(g419
g75
g147
g54
tp772
Rp773
(dp774
btp775
Rp776
(dp777
bg72
(g739
g83
g9
(g744
g130
g54
tp778
Rp779
(dp780
bg95
tp781
Rp782
(dp783
btp784
Rp785
(dp786
btp787
Rp788
(dp789
bg72
(g47
g479
g491
tp790
Rp791
(dp792
btp793
Rp794
(dp795
btp796
Rp797
(dp798
btp799
Rp800
(dp801
bag72
(g9
(g252
g72
(g9
(g47
g11
(S'delta'
p802
tp803
Rp804
(dp805
g16
g0
(g17
g18
(dp806
g196
I01
sg64
I00
sg23
Nsg197
I00
sg35
I00
sg198
I01
sg199
I00
sg27
Nsg28
Nsg200
I00
sg22
I00
sg201
I01
sg60
I01
sg202
I01
sg26
I01
sg203
I01
sg63
I01
sg204
I01
sg39
Nstp807
Rp808
(dp809
g43
(dp810
g196
I01
sg202
I01
sg204
I01
ssbsbtp811
Rp812
(dp813
bg9
(g11
(S's'
p814
tp815
Rp816
(dp817
g16
g0
(g17
g18
(dp818
g196
I01
sg64
I00
sg23
Nsg197
I00
sg35
I00
sg198
I01
sg199
I00
sg27
Nsg200
I00
sg22
I00
sg201
I01
sg60
I01
sg202
I01
sg26
I01
sg203
I01
sg63
I01
sg204
I01
sg39
Nstp819
Rp820
(dp821
g43
(dp822
g196
I01
sg202
I01
sg204
I01
ssbsbg210
g329
g467
g470
g303
tp823
Rp824
(dp825
btp826
Rp827
(dp828
btp829
Rp830
(dp831
bg9
(g181
g193
g816
g10
(g9
(g181
g54
tp832
Rp833
(dp834
bg72
(g47
g193
tp835
Rp836
(dp837
btp838
Rp839
(dp840
bg10
(g464
g72
(g177
g297
tp841
Rp842
(dp843
btp844
Rp845
(dp846
btp847
Rp848
(dp849
bg9
(g112
((I1
S'1L'
p850
I-2
I1
tp851
tp852
Rp853
(dp854
g118
I53
sbg50
g70
g10
(g173
g47
tp855
Rp856
(dp857
bg661
g110
g72
(g252
g9
(g47
g272
tp858
Rp859
(dp860
btp861
Rp862
(dp863
bg72
(g543
g555
tp864
Rp865
(dp866
btp867
Rp868
(dp869
bg9
(g347
g816
g210
g392
g458
g467
g482
g383
tp870
Rp871
(dp872
btp873
Rp874
(dp875
bag72
(g9
(g47
g347
g804
tp876
Rp877
(dp878
bg9
(g112
((I1
S'1L'
p879
I-2
I1
tp880
tp881
Rp882
(dp883
g118
I53
sbg50
g70
g856
g661
g110
g72
(g347
g9
(g47
g364
tp884
Rp885
(dp886
btp887
Rp888
(dp889
bg865
tp890
Rp891
(dp892
btp893
Rp894
(dp895
bag72
(g9
(g47
g272
g804
tp896
Rp897
(dp898
bg9
(g112
((I0
S'1L'
p899
I-2
I1
tp900
tp901
Rp902
(dp903
g118
I53
sbg50
g70
g10
(g173
g434
tp904
Rp905
(dp906
bg647
g101
g862
g72
(g9
(g121
g98
tp907
Rp908
(dp909
bg9
(g47
g75
g147
g54
g549
g552
g791
tp910
Rp911
(dp912
btp913
Rp914
(dp915
btp916
Rp917
(dp918
btp919
Rp920
(dp921
bag72
(g9
(g364
g72
(g812
g9
(g816
g210
g392
g458
g467
g482
g383
tp922
Rp923
(dp924
btp925
Rp926
(dp927
btp928
Rp929
(dp930
bg848
g9
(g272
g816
g210
g329
g467
g470
g303
tp931
Rp932
(dp933
bg9
(g112
((I0
S'1L'
p934
I-2
I1
tp935
tp936
Rp937
(dp938
g118
I53
sbg50
g70
g905
g647
g101
g888
g914
tp939
Rp940
(dp941
btp942
Rp943
(dp944
bag72
(g9
(g47
g223
g54
g804
tp945
Rp946
(dp947
bg9
(g214
g243
g10
(g9
(g181
g54
g329
g10
(g464
g47
tp948
Rp949
(dp950
btp951
Rp952
(dp953
bg193
tp954
Rp955
(dp956
bg10
(g72
(g9
(g252
g72
(g9
(csympy.core.numbers
Half
p957
(I1
I2
tp958
Rp959
(dp960
bg54
tp961
Rp962
(dp963
bg9
(g959
g130
g54
tp964
Rp965
(dp966
btp967
Rp968
(dp969
btp970
Rp971
(dp972
bg9
(g272
g72
(g962
g9
(csympy.core.numbers
Rational
p973
(I-1
I2
tp974
Rp975
(dp976
bg130
g54
tp977
Rp978
(dp979
btp980
Rp981
(dp982
btp983
Rp984
(dp985
btp986
Rp987
(dp988
bg303
tp989
Rp990
(dp991
btp992
Rp993
(dp994
btp995
Rp996
(dp997
bag9
(g47
g333
g449
g210
g10
(g9
(g392
g458
g949
tp998
Rp999
(dp1000
bg193
tp1001
Rp1002
(dp1003
bg386
tp1004
Rp1005
(dp1006
basS'cols'
p1007
I1
sb.